(lp0
(iinformation.movieinfo
MovieInfo
p1
(dp2
S'_MovieInfo__movie_name'
p3
S'abc'
p4
sS'_MovieInfo__movie_seats'
p5
(lp6
(dp7
(S'B'
p8
I2
tp9
I0
s(S'E'
p10
I4
tp11
I0
s(g10
I5
tp12
I0
s(S'A'
p13
I4
tp14
I0
s(S'D'
p15
I4
tp16
I0
s(S'C'
p17
I1
tp18
I0
s(g8
I3
tp19
I0
s(g13
I5
tp20
I0
s(g10
I1
tp21
I0
s(g15
I1
tp22
I0
s(g10
I2
tp23
I0
s(g13
I3
tp24
I0
s(g17
I5
tp25
I0
s(g15
I3
tp26
I0
s(g13
I1
tp27
I0
s(g15
I5
tp28
I0
s(g8
I4
tp29
I0
s(g8
I1
tp30
I0
s(g13
I2
tp31
I0
s(g10
I3
tp32
I0
s(g17
I2
tp33
I0
s(g17
I3
tp34
I0
s(g8
I5
tp35
I0
s(g15
I2
tp36
I0
s(g17
I4
tp37
I0
sa(dp38
(S'B'
p39
I2
tp40
I1
s(S'E'
p41
I5
tp42
I0
s(S'D'
p43
I4
tp44
I1
s(S'C'
p45
I3
tp46
I0
s(g41
I2
tp47
I0
s(g45
I5
tp48
I0
s(g43
I3
tp49
I1
s(S'A'
p50
I1
tp51
I1
s(g39
I1
tp52
I1
s(g41
I3
tp53
I0
s(g39
I5
tp54
I1
s(g39
I4
tp55
I1
s(g50
I2
tp56
I1
s(g45
I2
tp57
I0
s(g45
I1
tp58
I1
s(g43
I1
tp59
I0
s(g50
I3
tp60
I1
s(g43
I5
tp61
I0
s(g39
I3
tp62
I1
s(g43
I2
tp63
I0
s(g41
I4
tp64
I0
s(g45
I4
tp65
I1
s(g50
I4
tp66
I1
s(g50
I5
tp67
I0
s(g41
I1
tp68
I0
sa(dp69
g40
I0
sg42
I0
sg44
I0
sg46
I0
sg47
I0
sg48
I1
sg49
I0
sg51
I0
sg52
I0
sg53
I0
sg54
I0
sg55
I0
sg56
I0
sg57
I0
sg58
I0
sg59
I0
sg60
I0
sg61
I0
sg62
I0
sg63
I0
sg64
I0
sg65
I0
sg66
I0
sg67
I0
sg68
I0
sasS'_MovieInfo__movie_room'
p70
S'2'
p71
sS'_MovieInfo__movie_total'
p72
I108400
sS'_MovieInfo__movie_times'
p73
(lp74
S'04:00'
p75
aS'08:00'
p76
aS'09:00'
p77
asba(iinformation.movieinfo
MovieInfo
p78
(dp79
g3
S'insert new'
p80
sg73
(lp81
S'08:00'
p82
aS'09:00'
p83
asg70
I2
sg72
I8000
sg5
(lp84
(dp85
g9
I0
sg11
I0
sg12
I0
sg14
I0
sg16
I0
sg18
I0
sg19
I0
sg20
I0
sg21
I0
sg22
I0
sg23
I0
sg24
I0
sg25
I0
sg26
I0
sg27
I0
sg28
I0
sg29
I0
sg30
I0
sg31
I0
sg32
I0
sg33
I0
sg34
I0
sg35
I0
sg36
I0
sg37
I0
sa(dp86
g9
I0
sg11
I0
sg12
I0
sg14
I1
sg16
I0
sg18
I0
sg19
I0
sg20
I0
sg21
I0
sg22
I0
sg23
I0
sg24
I0
sg25
I0
sg26
I0
sg27
I0
sg28
I0
sg29
I0
sg30
I0
sg31
I0
sg32
I0
sg33
I0
sg34
I0
sg35
I0
sg36
I0
sg37
I0
sasba.